; Function Attrs: mustprogress nounwind uwtable
define dso_local void @_ZNSt3__120__libcpp_atomic_waitEPVKNS_17__cxx_atomic_implIiNS_22__cxx_atomic_base_implIiEEEEi(ptr noundef %0, i32 noundef %1) local_unnamed_addr #0 personality ptr @__gxx_personality_v0 {
  %3 = alloca %union.anon, align 8
  call void @llvm.lifetime.start.p0(i64 8, ptr nonnull %3) #6
  store ptr %0, ptr %3, align 8, !tbaa !4
  %4 = call noundef i64 @_ZNSt3__113__hash_memoryEPKvm(ptr noundef nonnull captures(none) %3, i64 noundef 8) #7
  call void @llvm.lifetime.end.p0(i64 8, ptr nonnull %3) #6
  %5 = and i64 %4, 255
  %6 = getelementptr inbounds nuw [256 x %"struct.std::__1::__libcpp_contention_table_entry"], ptr @_ZNSt3__1L25__libcpp_contention_tableE, i64 0, i64 %5
  %7 = atomicrmw volatile add ptr %6, i32 1 seq_cst, align 4
  %8 = tail call i64 (i64, ...) @syscall(i64 noundef 202, ptr noundef %0, i32 noundef 128, i32 noundef %1, ptr noundef nonnull @_ZZNSt3__1L33__libcpp_platform_wait_on_addressEPVKNS_17__cxx_atomic_implIiNS_22__cxx_atomic_base_implIiEEEEiE9__timeout, i32 noundef 0, i32 noundef 0) #6
  %9 = atomicrmw volatile sub ptr %6, i32 1 release, align 4
  ret void
}